target datalayout = "e-m:e-p270:32:32-p271:32:32-p272:64:64-i64:64-i128:128-f80:128-n8:16:32:64-S128"
target triple = "x86_64-pc-linux-gnu"

%struct.quic_srtm_st = type { ptr, ptr, ptr, i8 }
%struct.srtm_item_st = type { ptr, ptr, ptr, i64, %struct.QUIC_STATELESS_RESET_TOKEN, [16 x i8] }
%struct.QUIC_STATELESS_RESET_TOKEN = type { [16 x i8] }

; Function Attrs: inlinehint nounwind uwtable
define internal ptr @lh_SRTM_ITEM_retrieve(ptr noundef %0, ptr noundef %1) #3 {
  %3 = alloca ptr, align 8
  %4 = alloca ptr, align 8
  store ptr %0, ptr %3, align 8, !tbaa !29
  store ptr %1, ptr %4, align 8, !tbaa !22
  %5 = load ptr, ptr %3, align 8, !tbaa !29
  %6 = load ptr, ptr %4, align 8, !tbaa !22
  %7 = call ptr @OPENSSL_LH_retrieve(ptr noundef %5, ptr noundef %6)
  ret ptr %7
}

; Function Attrs: nounwind uwtable
define internal i32 @srtm_compute_blinded(ptr noundef %0, ptr noundef %1, ptr noundef %2) #0 {
  %4 = alloca i32, align 4
  %5 = alloca ptr, align 8
  %6 = alloca ptr, align 8
  %7 = alloca ptr, align 8
  %8 = alloca i32, align 4
  %9 = alloca i32, align 4
  store ptr %0, ptr %5, align 8, !tbaa !10
  store ptr %1, ptr %6, align 8, !tbaa !22
  store ptr %2, ptr %7, align 8, !tbaa !21
  call void @llvm.lifetime.start.p0(i64 4, ptr %8) #7
  store i32 0, ptr %8, align 4, !tbaa !39
  %10 = load ptr, ptr %5, align 8, !tbaa !10
  %11 = getelementptr inbounds nuw %struct.quic_srtm_st, ptr %10, i32 0, i32 0
  %12 = load ptr, ptr %11, align 8, !tbaa !14
  %13 = load ptr, ptr %6, align 8, !tbaa !22
  %14 = getelementptr inbounds nuw %struct.srtm_item_st, ptr %13, i32 0, i32 5
  %15 = getelementptr inbounds [16 x i8], ptr %14, i64 0, i64 0
  %16 = load ptr, ptr %7, align 8, !tbaa !21
  %17 = call i32 @EVP_EncryptUpdate(ptr noundef %12, ptr noundef %15, ptr noundef %8, ptr noundef %16, i32 noundef 16)
  %18 = icmp ne i32 %17, 0
  br i1 %18, label %20, label %19

19:                                               ; preds = %3
  store i32 0, ptr %4, align 4
  store i32 1, ptr %9, align 4
  br label %34

20:                                               ; preds = %3
  %21 = load i32, ptr %8, align 4, !tbaa !39
  %22 = sext i32 %21 to i64
  %23 = icmp eq i64 %22, 16
  %24 = zext i1 %23 to i32
  %25 = icmp ne i32 %24, 0
  %26 = xor i1 %25, true
  %27 = xor i1 %26, true
  %28 = zext i1 %27 to i32
  %29 = sext i32 %28 to i64
  %30 = call i64 @llvm.expect.i64(i64 %29, i64 1)
  %31 = icmp ne i64 %30, 0
  br i1 %31, label %33, label %32

32:                                               ; preds = %20
  store i32 0, ptr %4, align 4
  store i32 1, ptr %9, align 4
  br label %34

33:                                               ; preds = %20
  store i32 1, ptr %4, align 4
  store i32 1, ptr %9, align 4
  br label %34

34:                                               ; preds = %33, %32, %19
  call void @llvm.lifetime.end.p0(i64 4, ptr %8) #7
  %35 = load i32, ptr %4, align 4
  ret i32 %35
}

; Function Attrs: nounwind uwtable
define i32 @ossl_quic_srtm_lookup(ptr noundef %0, ptr noundef %1, i64 noundef %2, ptr noundef %3, ptr noundef %4) #0 {
  %6 = alloca i32, align 4
  %7 = alloca ptr, align 8
  %8 = alloca ptr, align 8
  %9 = alloca i64, align 8
  %10 = alloca ptr, align 8
  %11 = alloca ptr, align 8
  %12 = alloca %struct.srtm_item_st, align 8
  %13 = alloca ptr, align 8
  %14 = alloca i32, align 4
  store ptr %0, ptr %7, align 8, !tbaa !10
  store ptr %1, ptr %8, align 8, !tbaa !21
  store i64 %2, ptr %9, align 8, !tbaa !28
  store ptr %3, ptr %10, align 8, !tbaa !21
  store ptr %4, ptr %11, align 8, !tbaa !45
  call void @llvm.lifetime.start.p0(i64 64, ptr %12) #7
  call void @llvm.lifetime.start.p0(i64 8, ptr %13) #7
  %15 = load ptr, ptr %7, align 8, !tbaa !10
  %16 = getelementptr inbounds nuw %struct.quic_srtm_st, ptr %15, i32 0, i32 3
  %17 = load i8, ptr %16, align 8
  %18 = and i8 %17, 1
  %19 = zext i8 %18 to i32
  %20 = icmp ne i32 %19, 0
  br i1 %20, label %21, label %22

21:                                               ; preds = %5
  store i32 0, ptr %6, align 4
  store i32 1, ptr %14, align 4
  br label %69

22:                                               ; preds = %5
  %23 = load ptr, ptr %7, align 8, !tbaa !10
  %24 = load ptr, ptr %8, align 8, !tbaa !21
  %25 = call i32 @srtm_compute_blinded(ptr noundef %23, ptr noundef %12, ptr noundef %24)
  %26 = icmp ne i32 %25, 0
  br i1 %26, label %28, label %27

27:                                               ; preds = %22
  store i32 0, ptr %6, align 4
  store i32 1, ptr %14, align 4
  br label %69

28:                                               ; preds = %22
  %29 = load ptr, ptr %7, align 8, !tbaa !10
  %30 = getelementptr inbounds nuw %struct.quic_srtm_st, ptr %29, i32 0, i32 2
  %31 = load ptr, ptr %30, align 8, !tbaa !20
  %32 = call ptr @lh_SRTM_ITEM_retrieve(ptr noundef %31, ptr noundef %12)
  store ptr %32, ptr %13, align 8, !tbaa !22
  br label %33

33:                                               ; preds = %42, %28
  %34 = load i64, ptr %9, align 8, !tbaa !28
  %35 = icmp ugt i64 %34, 0
  br i1 %35, label %36, label %39

36:                                               ; preds = %33
  %37 = load ptr, ptr %13, align 8, !tbaa !22
  %38 = icmp ne ptr %37, null
  br label %39

39:                                               ; preds = %36, %33
  %40 = phi i1 [ false, %33 ], [ %38, %36 ]
  br i1 %40, label %41, label %48

41:                                               ; preds = %39
  br label %42

42:                                               ; preds = %41
  %43 = load i64, ptr %9, align 8, !tbaa !28
  %44 = add i64 %43, -1
  store i64 %44, ptr %9, align 8, !tbaa !28
  %45 = load ptr, ptr %13, align 8, !tbaa !22
  %46 = getelementptr inbounds nuw %struct.srtm_item_st, ptr %45, i32 0, i32 0
  %47 = load ptr, ptr %46, align 8, !tbaa !41
  store ptr %47, ptr %13, align 8, !tbaa !22
  br label %33, !llvm.loop !47

48:                                               ; preds = %39
  %49 = load ptr, ptr %13, align 8, !tbaa !22
  %50 = icmp eq ptr %49, null
  br i1 %50, label %51, label %52

51:                                               ; preds = %48
  store i32 0, ptr %6, align 4
  store i32 1, ptr %14, align 4
  br label %69

52:                                               ; preds = %48
  %53 = load ptr, ptr %10, align 8, !tbaa !21
  %54 = icmp ne ptr %53, null
  br i1 %54, label %55, label %60

55:                                               ; preds = %52
  %56 = load ptr, ptr %13, align 8, !tbaa !22
  %57 = getelementptr inbounds nuw %struct.srtm_item_st, ptr %56, i32 0, i32 2
  %58 = load ptr, ptr %57, align 8, !tbaa !24
  %59 = load ptr, ptr %10, align 8, !tbaa !21
  store ptr %58, ptr %59, align 8, !tbaa !21
  br label %60

60:                                               ; preds = %55, %52
  %61 = load ptr, ptr %11, align 8, !tbaa !45
  %62 = icmp ne ptr %61, null
  br i1 %62, label %63, label %68

63:                                               ; preds = %60
  %64 = load ptr, ptr %13, align 8, !tbaa !22
  %65 = getelementptr inbounds nuw %struct.srtm_item_st, ptr %64, i32 0, i32 3
  %66 = load i64, ptr %65, align 8, !tbaa !33
  %67 = load ptr, ptr %11, align 8, !tbaa !45
  store i64 %66, ptr %67, align 8, !tbaa !28
  br label %68

68:                                               ; preds = %63, %60
  store i32 1, ptr %6, align 4
  store i32 1, ptr %14, align 4
  br label %69

69:                                               ; preds = %68, %51, %27, %21
  call void @llvm.lifetime.end.p0(i64 8, ptr %13) #7
  call void @llvm.lifetime.end.p0(i64 64, ptr %12) #7
  %70 = load i32, ptr %6, align 4
  ret i32 %70
}