; Function Attrs: nounwind uwtable
define range(i32 0, 2) i32 @ossl_quic_srtm_lookup(ptr noundef readonly captures(none) %0, ptr noundef %1, i64 noundef %2, ptr noundef writeonly captures(address_is_null) %3, ptr noundef writeonly captures(address_is_null) %4) local_unnamed_addr #0 {
  %6 = alloca i32, align 4
  %7 = alloca %struct.srtm_item_st, align 8
  call void @llvm.lifetime.start.p0(i64 64, ptr nonnull %7) #9
  %8 = getelementptr inbounds nuw i8, ptr %0, i64 24
  %9 = load i8, ptr %8, align 8
  %10 = and i8 %9, 1
  %.not = icmp eq i8 %10, 0
  br i1 %.not, label %11, label %37

11:                                               ; preds = %5
  %.val = load ptr, ptr %0, align 8, !tbaa !3
  call void @llvm.lifetime.start.p0(i64 4, ptr nonnull %6) #9
  store i32 0, ptr %6, align 4, !tbaa !25
  %12 = getelementptr inbounds nuw i8, ptr %7, i64 48
  %13 = call i32 @EVP_EncryptUpdate(ptr noundef %.val, ptr noundef nonnull %12, ptr noundef nonnull %6, ptr noundef %1, i32 noundef 16) #9
  %.not.i = icmp eq i32 %13, 0
  %14 = load i32, ptr %6, align 4
  %15 = icmp ne i32 %14, 16
  %narrow.i.not = select i1 %.not.i, i1 true, i1 %15
  call void @llvm.lifetime.end.p0(i64 4, ptr nonnull %6) #9
  br i1 %narrow.i.not, label %37, label %16

16:                                               ; preds = %11
  %17 = getelementptr inbounds nuw i8, ptr %0, i64 16
  %18 = load ptr, ptr %17, align 8, !tbaa !12
  %19 = call ptr @OPENSSL_LH_retrieve(ptr noundef %18, ptr noundef nonnull %7) #9
  %20 = icmp ne i64 %2, 0
  %21 = icmp ne ptr %19, null
  %22 = select i1 %20, i1 %21, i1 false
  br i1 %22, label %.lr.ph, label %._crit_edge

.lr.ph:                                           ; preds = %16, %.lr.ph
  %.024 = phi ptr [ %24, %.lr.ph ], [ %19, %16 ]
  %.01623 = phi i64 [ %23, %.lr.ph ], [ %2, %16 ]
  %23 = add i64 %.01623, -1
  %24 = load ptr, ptr %.024, align 8, !tbaa !29
  %25 = icmp ne i64 %23, 0
  %26 = icmp ne ptr %24, null
  %27 = select i1 %25, i1 %26, i1 false
  br i1 %27, label %.lr.ph, label %._crit_edge, !llvm.loop !32

._crit_edge:                                      ; preds = %.lr.ph, %16
  %.0.lcssa = phi ptr [ %19, %16 ], [ %24, %.lr.ph ]
  %28 = icmp eq ptr %.0.lcssa, null
  br i1 %28, label %37, label %29

29:                                               ; preds = %._crit_edge
  %.not20 = icmp eq ptr %3, null
  br i1 %.not20, label %33, label %30

30:                                               ; preds = %29
  %31 = getelementptr inbounds nuw i8, ptr %.0.lcssa, i64 16
  %32 = load ptr, ptr %31, align 8, !tbaa !13
  store ptr %32, ptr %3, align 8, !tbaa !33
  br label %33

33:                                               ; preds = %30, %29
  %.not21 = icmp eq ptr %4, null
  br i1 %.not21, label %37, label %34

34:                                               ; preds = %33
  %35 = getelementptr inbounds nuw i8, ptr %.0.lcssa, i64 24
  %36 = load i64, ptr %35, align 8, !tbaa !21
  store i64 %36, ptr %4, align 8, !tbaa !34
  br label %37

37:                                               ; preds = %33, %34, %._crit_edge, %11, %5
  %.015 = phi i32 [ 0, %5 ], [ 0, %11 ], [ 0, %._crit_edge ], [ 1, %34 ], [ 1, %33 ]
  call void @llvm.lifetime.end.p0(i64 64, ptr nonnull %7) #9
  ret i32 %.015
}